target datalayout = "e-m:e-p270:32:32-p271:32:32-p272:64:64-i64:64-i128:128-f80:128-n8:16:32:64-S128"
target triple = "x86_64-pc-linux-gnu"

%struct.ImVec2 = type { float, float }
%struct.ImVec4 = type { float, float, float, float }
%struct.ImDrawListSharedData = type <{ %struct.ImVec2, ptr, ptr, float, float, float, float, float, i32, %struct.ImVec4, %struct.ImVector, [48 x %struct.ImVec2], float, [64 x i8], [4 x i8] }>
%struct.ImVector = type { i32, i32, ptr }
%struct.ImDrawList = type { %struct.ImVector.0, %struct.ImVector.1, %struct.ImVector.2, i32, i32, ptr, ptr, ptr, %struct.ImVector, %struct.ImDrawCmdHeader, %struct.ImDrawListSplitter, %struct.ImVector.4, %struct.ImVector.5, %struct.ImVector.6, float, ptr }
%struct.ImVector.0 = type { i32, i32, ptr }
%struct.ImVector.1 = type { i32, i32, ptr }
%struct.ImVector.2 = type { i32, i32, ptr }
%struct.ImDrawCmdHeader = type <{ %struct.ImVec4, i64, i32, [4 x i8] }>
%struct.ImDrawListSplitter = type { i32, i32, %struct.ImVector.3 }
%struct.ImVector.3 = type { i32, i32, ptr }
%struct.ImVector.4 = type { i32, i32, ptr }
%struct.ImVector.5 = type { i32, i32, ptr }
%struct.ImVector.6 = type { i32, i32, ptr }

; Function Attrs: inlinehint mustprogress uwtable
define linkonce_odr void @_ZN8ImVectorI6ImVec2E7reserveEi(ptr noundef nonnull align 8 dereferenceable(16) %0, i32 noundef %1) #5 comdat align 2 {
  %3 = alloca ptr, align 8
  %4 = alloca i32, align 4
  %5 = alloca ptr, align 8
  store ptr %0, ptr %3, align 8, !tbaa !36
  store i32 %1, ptr %4, align 4, !tbaa !27
  %6 = load ptr, ptr %3, align 8
  %7 = load i32, ptr %4, align 4, !tbaa !27
  %8 = getelementptr inbounds nuw %struct.ImVector, ptr %6, i32 0, i32 1
  %9 = load i32, ptr %8, align 4, !tbaa !38
  %10 = icmp sle i32 %7, %9
  br i1 %10, label %11, label %12

11:                                               ; preds = %2
  br label %35

12:                                               ; preds = %2
  call void @llvm.lifetime.start.p0(i64 8, ptr %5) #17
  %13 = load i32, ptr %4, align 4, !tbaa !27
  %14 = sext i32 %13 to i64
  %15 = mul i64 %14, 8
  %16 = call noundef ptr @_ZN5ImGui8MemAllocEm(i64 noundef %15)
  store ptr %16, ptr %5, align 8, !tbaa !33
  %17 = getelementptr inbounds nuw %struct.ImVector, ptr %6, i32 0, i32 2
  %18 = load ptr, ptr %17, align 8, !tbaa !40
  %19 = icmp ne ptr %18, null
  br i1 %19, label %20, label %30

20:                                               ; preds = %12
  %21 = load ptr, ptr %5, align 8, !tbaa !33
  %22 = getelementptr inbounds nuw %struct.ImVector, ptr %6, i32 0, i32 2
  %23 = load ptr, ptr %22, align 8, !tbaa !40
  %24 = getelementptr inbounds nuw %struct.ImVector, ptr %6, i32 0, i32 0
  %25 = load i32, ptr %24, align 8, !tbaa !39
  %26 = sext i32 %25 to i64
  %27 = mul i64 %26, 8
  call void @llvm.memcpy.p0.p0.i64(ptr align 4 %21, ptr align 4 %23, i64 %27, i1 false)
  %28 = getelementptr inbounds nuw %struct.ImVector, ptr %6, i32 0, i32 2
  %29 = load ptr, ptr %28, align 8, !tbaa !40
  call void @_ZN5ImGui7MemFreeEPv(ptr noundef %29)
  br label %30

30:                                               ; preds = %20, %12
  %31 = load ptr, ptr %5, align 8, !tbaa !33
  %32 = getelementptr inbounds nuw %struct.ImVector, ptr %6, i32 0, i32 2
  store ptr %31, ptr %32, align 8, !tbaa !40
  %33 = load i32, ptr %4, align 4, !tbaa !27
  %34 = getelementptr inbounds nuw %struct.ImVector, ptr %6, i32 0, i32 1
  store i32 %33, ptr %34, align 4, !tbaa !38
  call void @llvm.lifetime.end.p0(i64 8, ptr %5) #17
  br label %35

35:                                               ; preds = %30, %11
  ret void
}

; Function Attrs: inlinehint mustprogress nounwind uwtable
define linkonce_odr noundef i32 @_ZNK8ImVectorI6ImVec2E14_grow_capacityEi(ptr noundef nonnull align 8 dereferenceable(16) %0, i32 noundef %1) #7 comdat align 2 {
  %3 = alloca ptr, align 8
  %4 = alloca i32, align 4
  %5 = alloca i32, align 4
  store ptr %0, ptr %3, align 8, !tbaa !36
  store i32 %1, ptr %4, align 4, !tbaa !27
  %6 = load ptr, ptr %3, align 8
  call void @llvm.lifetime.start.p0(i64 4, ptr %5) #17
  %7 = getelementptr inbounds nuw %struct.ImVector, ptr %6, i32 0, i32 1
  %8 = load i32, ptr %7, align 4, !tbaa !38
  %9 = icmp ne i32 %8, 0
  br i1 %9, label %10, label %17

10:                                               ; preds = %2
  %11 = getelementptr inbounds nuw %struct.ImVector, ptr %6, i32 0, i32 1
  %12 = load i32, ptr %11, align 4, !tbaa !38
  %13 = getelementptr inbounds nuw %struct.ImVector, ptr %6, i32 0, i32 1
  %14 = load i32, ptr %13, align 4, !tbaa !38
  %15 = sdiv i32 %14, 2
  %16 = add nsw i32 %12, %15
  br label %18

17:                                               ; preds = %2
  br label %18

18:                                               ; preds = %17, %10
  %19 = phi i32 [ %16, %10 ], [ 8, %17 ]
  store i32 %19, ptr %5, align 4, !tbaa !27
  %20 = load i32, ptr %5, align 4, !tbaa !27
  %21 = load i32, ptr %4, align 4, !tbaa !27
  %22 = icmp sgt i32 %20, %21
  br i1 %22, label %23, label %25

23:                                               ; preds = %18
  %24 = load i32, ptr %5, align 4, !tbaa !27
  br label %27

25:                                               ; preds = %18
  %26 = load i32, ptr %4, align 4, !tbaa !27
  br label %27

27:                                               ; preds = %25, %23
  %28 = phi i32 [ %24, %23 ], [ %26, %25 ]
  call void @llvm.lifetime.end.p0(i64 4, ptr %5) #17
  ret i32 %28
}

; Function Attrs: mustprogress nounwind uwtable
define linkonce_odr void @_ZN6ImVec2C2Eff(ptr noundef nonnull align 4 dereferenceable(8) %0, float noundef %1, float noundef %2) unnamed_addr #3 comdat align 2 {
  %4 = alloca ptr, align 8
  %5 = alloca float, align 4
  %6 = alloca float, align 4
  store ptr %0, ptr %4, align 8, !tbaa !33
  store float %1, ptr %5, align 4, !tbaa !11
  store float %2, ptr %6, align 4, !tbaa !11
  %7 = load ptr, ptr %4, align 8
  %8 = getelementptr inbounds nuw %struct.ImVec2, ptr %7, i32 0, i32 0
  %9 = load float, ptr %5, align 4, !tbaa !11
  store float %9, ptr %8, align 4, !tbaa !34
  %10 = getelementptr inbounds nuw %struct.ImVec2, ptr %7, i32 0, i32 1
  %11 = load float, ptr %6, align 4, !tbaa !11
  store float %11, ptr %10, align 4, !tbaa !35
  ret void
}

; Function Attrs: inlinehint mustprogress uwtable
define linkonce_odr void @_ZN8ImVectorI6ImVec2E9push_backERKS0_(ptr noundef nonnull align 8 dereferenceable(16) %0, ptr noundef nonnull align 4 dereferenceable(8) %1) #5 comdat align 2 {
  %3 = alloca ptr, align 8
  %4 = alloca ptr, align 8
  store ptr %0, ptr %3, align 8, !tbaa !36
  store ptr %1, ptr %4, align 8, !tbaa !33
  %5 = load ptr, ptr %3, align 8
  %6 = getelementptr inbounds nuw %struct.ImVector, ptr %5, i32 0, i32 0
  %7 = load i32, ptr %6, align 8, !tbaa !39
  %8 = getelementptr inbounds nuw %struct.ImVector, ptr %5, i32 0, i32 1
  %9 = load i32, ptr %8, align 4, !tbaa !38
  %10 = icmp eq i32 %7, %9
  br i1 %10, label %11, label %16

11:                                               ; preds = %2
  %12 = getelementptr inbounds nuw %struct.ImVector, ptr %5, i32 0, i32 0
  %13 = load i32, ptr %12, align 8, !tbaa !39
  %14 = add nsw i32 %13, 1
  %15 = call noundef i32 @_ZNK8ImVectorI6ImVec2E14_grow_capacityEi(ptr noundef nonnull align 8 dereferenceable(16) %5, i32 noundef %14)
  call void @_ZN8ImVectorI6ImVec2E7reserveEi(ptr noundef nonnull align 8 dereferenceable(16) %5, i32 noundef %15)
  br label %16

16:                                               ; preds = %11, %2
  %17 = getelementptr inbounds nuw %struct.ImVector, ptr %5, i32 0, i32 2
  %18 = load ptr, ptr %17, align 8, !tbaa !40
  %19 = getelementptr inbounds nuw %struct.ImVector, ptr %5, i32 0, i32 0
  %20 = load i32, ptr %19, align 8, !tbaa !39
  %21 = sext i32 %20 to i64
  %22 = getelementptr inbounds %struct.ImVec2, ptr %18, i64 %21
  %23 = load ptr, ptr %4, align 8, !tbaa !33
  call void @llvm.memcpy.p0.p0.i64(ptr align 4 %22, ptr align 4 %23, i64 8, i1 false)
  %24 = getelementptr inbounds nuw %struct.ImVector, ptr %5, i32 0, i32 0
  %25 = load i32, ptr %24, align 8, !tbaa !39
  %26 = add nsw i32 %25, 1
  store i32 %26, ptr %24, align 8, !tbaa !39
  ret void
}

; Function Attrs: mustprogress uwtable
define <2 x float> @_Z17ImBezierCubicCalcRK6ImVec2S1_S1_S1_f(ptr noundef nonnull align 4 dereferenceable(8) %0, ptr noundef nonnull align 4 dereferenceable(8) %1, ptr noundef nonnull align 4 dereferenceable(8) %2, ptr noundef nonnull align 4 dereferenceable(8) %3, float noundef %4) #0 {
  %6 = alloca %struct.ImVec2, align 4
  %7 = alloca ptr, align 8
  %8 = alloca ptr, align 8
  %9 = alloca ptr, align 8
  %10 = alloca ptr, align 8
  %11 = alloca float, align 4
  %12 = alloca float, align 4
  %13 = alloca float, align 4
  %14 = alloca float, align 4
  %15 = alloca float, align 4
  %16 = alloca float, align 4
  store ptr %0, ptr %7, align 8, !tbaa !33
  store ptr %1, ptr %8, align 8, !tbaa !33
  store ptr %2, ptr %9, align 8, !tbaa !33
  store ptr %3, ptr %10, align 8, !tbaa !33
  store float %4, ptr %11, align 4, !tbaa !11
  call void @llvm.lifetime.start.p0(i64 4, ptr %12) #17
  %17 = load float, ptr %11, align 4, !tbaa !11
  %18 = fsub float 1.000000e+00, %17
  store float %18, ptr %12, align 4, !tbaa !11
  call void @llvm.lifetime.start.p0(i64 4, ptr %13) #17
  %19 = load float, ptr %12, align 4, !tbaa !11
  %20 = load float, ptr %12, align 4, !tbaa !11
  %21 = fmul float %19, %20
  %22 = load float, ptr %12, align 4, !tbaa !11
  %23 = fmul float %21, %22
  store float %23, ptr %13, align 4, !tbaa !11
  call void @llvm.lifetime.start.p0(i64 4, ptr %14) #17
  %24 = load float, ptr %12, align 4, !tbaa !11
  %25 = fmul float 3.000000e+00, %24
  %26 = load float, ptr %12, align 4, !tbaa !11
  %27 = fmul float %25, %26
  %28 = load float, ptr %11, align 4, !tbaa !11
  %29 = fmul float %27, %28
  store float %29, ptr %14, align 4, !tbaa !11
  call void @llvm.lifetime.start.p0(i64 4, ptr %15) #17
  %30 = load float, ptr %12, align 4, !tbaa !11
  %31 = fmul float 3.000000e+00, %30
  %32 = load float, ptr %11, align 4, !tbaa !11
  %33 = fmul float %31, %32
  %34 = load float, ptr %11, align 4, !tbaa !11
  %35 = fmul float %33, %34
  store float %35, ptr %15, align 4, !tbaa !11
  call void @llvm.lifetime.start.p0(i64 4, ptr %16) #17
  %36 = load float, ptr %11, align 4, !tbaa !11
  %37 = load float, ptr %11, align 4, !tbaa !11
  %38 = fmul float %36, %37
  %39 = load float, ptr %11, align 4, !tbaa !11
  %40 = fmul float %38, %39
  store float %40, ptr %16, align 4, !tbaa !11
  %41 = load float, ptr %13, align 4, !tbaa !11
  %42 = load ptr, ptr %7, align 8, !tbaa !33
  %43 = getelementptr inbounds nuw %struct.ImVec2, ptr %42, i32 0, i32 0
  %44 = load float, ptr %43, align 4, !tbaa !34
  %45 = load float, ptr %14, align 4, !tbaa !11
  %46 = load ptr, ptr %8, align 8, !tbaa !33
  %47 = getelementptr inbounds nuw %struct.ImVec2, ptr %46, i32 0, i32 0
  %48 = load float, ptr %47, align 4, !tbaa !34
  %49 = fmul float %45, %48
  %50 = call float @llvm.fmuladd.f32(float %41, float %44, float %49)
  %51 = load float, ptr %15, align 4, !tbaa !11
  %52 = load ptr, ptr %9, align 8, !tbaa !33
  %53 = getelementptr inbounds nuw %struct.ImVec2, ptr %52, i32 0, i32 0
  %54 = load float, ptr %53, align 4, !tbaa !34
  %55 = call float @llvm.fmuladd.f32(float %51, float %54, float %50)
  %56 = load float, ptr %16, align 4, !tbaa !11
  %57 = load ptr, ptr %10, align 8, !tbaa !33
  %58 = getelementptr inbounds nuw %struct.ImVec2, ptr %57, i32 0, i32 0
  %59 = load float, ptr %58, align 4, !tbaa !34
  %60 = call float @llvm.fmuladd.f32(float %56, float %59, float %55)
  %61 = load float, ptr %13, align 4, !tbaa !11
  %62 = load ptr, ptr %7, align 8, !tbaa !33
  %63 = getelementptr inbounds nuw %struct.ImVec2, ptr %62, i32 0, i32 1
  %64 = load float, ptr %63, align 4, !tbaa !35
  %65 = load float, ptr %14, align 4, !tbaa !11
  %66 = load ptr, ptr %8, align 8, !tbaa !33
  %67 = getelementptr inbounds nuw %struct.ImVec2, ptr %66, i32 0, i32 1
  %68 = load float, ptr %67, align 4, !tbaa !35
  %69 = fmul float %65, %68
  %70 = call float @llvm.fmuladd.f32(float %61, float %64, float %69)
  %71 = load float, ptr %15, align 4, !tbaa !11
  %72 = load ptr, ptr %9, align 8, !tbaa !33
  %73 = getelementptr inbounds nuw %struct.ImVec2, ptr %72, i32 0, i32 1
  %74 = load float, ptr %73, align 4, !tbaa !35
  %75 = call float @llvm.fmuladd.f32(float %71, float %74, float %70)
  %76 = load float, ptr %16, align 4, !tbaa !11
  %77 = load ptr, ptr %10, align 8, !tbaa !33
  %78 = getelementptr inbounds nuw %struct.ImVec2, ptr %77, i32 0, i32 1
  %79 = load float, ptr %78, align 4, !tbaa !35
  %80 = call float @llvm.fmuladd.f32(float %76, float %79, float %75)
  call void @_ZN6ImVec2C2Eff(ptr noundef nonnull align 4 dereferenceable(8) %6, float noundef %60, float noundef %80)
  call void @llvm.lifetime.end.p0(i64 4, ptr %16) #17
  call void @llvm.lifetime.end.p0(i64 4, ptr %15) #17
  call void @llvm.lifetime.end.p0(i64 4, ptr %14) #17
  call void @llvm.lifetime.end.p0(i64 4, ptr %13) #17
  call void @llvm.lifetime.end.p0(i64 4, ptr %12) #17
  %81 = load <2 x float>, ptr %6, align 4
  ret <2 x float> %81
}

; Function Attrs: inlinehint mustprogress nounwind uwtable
define linkonce_odr noundef nonnull align 4 dereferenceable(8) ptr @_ZN8ImVectorI6ImVec2E4backEv(ptr noundef nonnull align 8 dereferenceable(16) %0) #7 comdat align 2 {
  %2 = alloca ptr, align 8
  store ptr %0, ptr %2, align 8, !tbaa !36
  %3 = load ptr, ptr %2, align 8
  %4 = getelementptr inbounds nuw %struct.ImVector, ptr %3, i32 0, i32 2
  %5 = load ptr, ptr %4, align 8, !tbaa !40
  %6 = getelementptr inbounds nuw %struct.ImVector, ptr %3, i32 0, i32 0
  %7 = load i32, ptr %6, align 8, !tbaa !39
  %8 = sub nsw i32 %7, 1
  %9 = sext i32 %8 to i64
  %10 = getelementptr inbounds %struct.ImVec2, ptr %5, i64 %9
  ret ptr %10
}

; Function Attrs: mustprogress uwtable
define void @_ZN10ImDrawList22PathBezierCubicCurveToERK6ImVec2S2_S2_i(ptr noundef nonnull align 8 dereferenceable(216) %0, ptr noundef nonnull align 4 dereferenceable(8) %1, ptr noundef nonnull align 4 dereferenceable(8) %2, ptr noundef nonnull align 4 dereferenceable(8) %3, i32 noundef %4) #0 align 2 {
  %6 = alloca ptr, align 8
  %7 = alloca ptr, align 8
  %8 = alloca ptr, align 8
  %9 = alloca ptr, align 8
  %10 = alloca i32, align 4
  %11 = alloca %struct.ImVec2, align 4
  %12 = alloca float, align 4
  %13 = alloca i32, align 4
  %14 = alloca %struct.ImVec2, align 4
  store ptr %0, ptr %6, align 8, !tbaa !43
  store ptr %1, ptr %7, align 8, !tbaa !33
  store ptr %2, ptr %8, align 8, !tbaa !33
  store ptr %3, ptr %9, align 8, !tbaa !33
  store i32 %4, ptr %10, align 4, !tbaa !27
  %15 = load ptr, ptr %6, align 8
  call void @llvm.lifetime.start.p0(i64 8, ptr %11) #17
  %16 = getelementptr inbounds nuw %struct.ImDrawList, ptr %15, i32 0, i32 8
  %17 = call noundef nonnull align 4 dereferenceable(8) ptr @_ZN8ImVectorI6ImVec2E4backEv(ptr noundef nonnull align 8 dereferenceable(16) %16)
  call void @llvm.memcpy.p0.p0.i64(ptr align 4 %11, ptr align 4 %17, i64 8, i1 false), !tbaa.struct !28
  %18 = load i32, ptr %10, align 4, !tbaa !27
  %19 = icmp eq i32 %18, 0
  br i1 %19, label %20, label %48

20:                                               ; preds = %5
  %21 = getelementptr inbounds nuw %struct.ImDrawList, ptr %15, i32 0, i32 8
  %22 = getelementptr inbounds nuw %struct.ImVec2, ptr %11, i32 0, i32 0
  %23 = load float, ptr %22, align 4, !tbaa !34
  %24 = getelementptr inbounds nuw %struct.ImVec2, ptr %11, i32 0, i32 1
  %25 = load float, ptr %24, align 4, !tbaa !35
  %26 = load ptr, ptr %7, align 8, !tbaa !33
  %27 = getelementptr inbounds nuw %struct.ImVec2, ptr %26, i32 0, i32 0
  %28 = load float, ptr %27, align 4, !tbaa !34
  %29 = load ptr, ptr %7, align 8, !tbaa !33
  %30 = getelementptr inbounds nuw %struct.ImVec2, ptr %29, i32 0, i32 1
  %31 = load float, ptr %30, align 4, !tbaa !35
  %32 = load ptr, ptr %8, align 8, !tbaa !33
  %33 = getelementptr inbounds nuw %struct.ImVec2, ptr %32, i32 0, i32 0
  %34 = load float, ptr %33, align 4, !tbaa !34
  %35 = load ptr, ptr %8, align 8, !tbaa !33
  %36 = getelementptr inbounds nuw %struct.ImVec2, ptr %35, i32 0, i32 1
  %37 = load float, ptr %36, align 4, !tbaa !35
  %38 = load ptr, ptr %9, align 8, !tbaa !33
  %39 = getelementptr inbounds nuw %struct.ImVec2, ptr %38, i32 0, i32 0
  %40 = load float, ptr %39, align 4, !tbaa !34
  %41 = load ptr, ptr %9, align 8, !tbaa !33
  %42 = getelementptr inbounds nuw %struct.ImVec2, ptr %41, i32 0, i32 1
  %43 = load float, ptr %42, align 4, !tbaa !35
  %44 = getelementptr inbounds nuw %struct.ImDrawList, ptr %15, i32 0, i32 5
  %45 = load ptr, ptr %44, align 8, !tbaa !45
  %46 = getelementptr inbounds nuw %struct.ImDrawListSharedData, ptr %45, i32 0, i32 5
  %47 = load float, ptr %46, align 8, !tbaa !182
  call void @_ZL31PathBezierCubicCurveToCasteljauP8ImVectorI6ImVec2Efffffffffi(ptr noundef %21, float noundef %23, float noundef %25, float noundef %28, float noundef %31, float noundef %34, float noundef %37, float noundef %40, float noundef %43, float noundef %47, i32 noundef 0)
  br label %71

48:                                               ; preds = %5
  call void @llvm.lifetime.start.p0(i64 4, ptr %12) #17
  %49 = load i32, ptr %10, align 4, !tbaa !27
  %50 = sitofp i32 %49 to float
  %51 = fdiv float 1.000000e+00, %50
  store float %51, ptr %12, align 4, !tbaa !11
  call void @llvm.lifetime.start.p0(i64 4, ptr %13) #17
  store i32 1, ptr %13, align 4, !tbaa !27
  br label %52

52:                                               ; preds = %67, %48
  %53 = load i32, ptr %13, align 4, !tbaa !27
  %54 = load i32, ptr %10, align 4, !tbaa !27
  %55 = icmp sle i32 %53, %54
  br i1 %55, label %57, label %56

56:                                               ; preds = %52
  call void @llvm.lifetime.end.p0(i64 4, ptr %13) #17
  br label %70

57:                                               ; preds = %52
  %58 = getelementptr inbounds nuw %struct.ImDrawList, ptr %15, i32 0, i32 8
  call void @llvm.lifetime.start.p0(i64 8, ptr %14) #17
  %59 = load ptr, ptr %7, align 8, !tbaa !33
  %60 = load ptr, ptr %8, align 8, !tbaa !33
  %61 = load ptr, ptr %9, align 8, !tbaa !33
  %62 = load float, ptr %12, align 4, !tbaa !11
  %63 = load i32, ptr %13, align 4, !tbaa !27
  %64 = sitofp i32 %63 to float
  %65 = fmul float %62, %64
  %66 = call <2 x float> @_Z17ImBezierCubicCalcRK6ImVec2S1_S1_S1_f(ptr noundef nonnull align 4 dereferenceable(8) %11, ptr noundef nonnull align 4 dereferenceable(8) %59, ptr noundef nonnull align 4 dereferenceable(8) %60, ptr noundef nonnull align 4 dereferenceable(8) %61, float noundef %65)
  store <2 x float> %66, ptr %14, align 4
  call void @_ZN8ImVectorI6ImVec2E9push_backERKS0_(ptr noundef nonnull align 8 dereferenceable(16) %58, ptr noundef nonnull align 4 dereferenceable(8) %14)
  call void @llvm.lifetime.end.p0(i64 8, ptr %14) #17
  br label %67

67:                                               ; preds = %57
  %68 = load i32, ptr %13, align 4, !tbaa !27
  %69 = add nsw i32 %68, 1
  store i32 %69, ptr %13, align 4, !tbaa !27
  br label %52, !llvm.loop !183

70:                                               ; preds = %56
  call void @llvm.lifetime.end.p0(i64 4, ptr %12) #17
  br label %71

71:                                               ; preds = %70, %20
  call void @llvm.lifetime.end.p0(i64 8, ptr %11) #17
  ret void
}