; Function Attrs: mustprogress uwtable
define void @_ZN10ImDrawList22PathBezierCubicCurveToERK6ImVec2S2_S2_i(ptr noundef nonnull align 8 captures(none) dereferenceable(216) %0, ptr noundef nonnull readonly align 4 captures(none) dereferenceable(8) %1, ptr noundef nonnull readonly align 4 captures(none) dereferenceable(8) %2, ptr noundef nonnull readonly align 4 captures(none) dereferenceable(8) %3, i32 noundef %4) local_unnamed_addr #0 align 2 {
  %6 = getelementptr inbounds nuw i8, ptr %0, i64 80
  %7 = getelementptr inbounds nuw i8, ptr %0, i64 88
  %8 = load ptr, ptr %7, align 8, !tbaa !49
  %9 = load i32, ptr %6, align 8, !tbaa !67
  %10 = sext i32 %9 to i64
  %11 = getelementptr %struct.ImVec2, ptr %8, i64 %10
  %12 = getelementptr i8, ptr %11, i64 -8
  %13 = load float, ptr %12, align 4
  %.sroa_idx = getelementptr i8, ptr %11, i64 -4
  %14 = load float, ptr %.sroa_idx, align 4
  %15 = icmp eq i32 %4, 0
  br i1 %15, label %16, label %30

16:                                               ; preds = %5
  %17 = load float, ptr %1, align 4, !tbaa !103
  %18 = getelementptr inbounds nuw i8, ptr %1, i64 4
  %19 = load float, ptr %18, align 4, !tbaa !104
  %20 = load float, ptr %2, align 4, !tbaa !103
  %21 = getelementptr inbounds nuw i8, ptr %2, i64 4
  %22 = load float, ptr %21, align 4, !tbaa !104
  %23 = load float, ptr %3, align 4, !tbaa !103
  %24 = getelementptr inbounds nuw i8, ptr %3, i64 4
  %25 = load float, ptr %24, align 4, !tbaa !104
  %26 = getelementptr inbounds nuw i8, ptr %0, i64 56
  %27 = load ptr, ptr %26, align 8, !tbaa !25
  %28 = getelementptr inbounds nuw i8, ptr %27, i64 32
  %29 = load float, ptr %28, align 8, !tbaa !140
  tail call fastcc void @_ZL31PathBezierCubicCurveToCasteljauP8ImVectorI6ImVec2Efffffffffi(ptr noundef %6, float noundef %13, float noundef %14, float noundef %17, float noundef %19, float noundef %20, float noundef %22, float noundef %23, float noundef %25, float noundef %29, i32 noundef 0)
  br label %.loopexit

30:                                               ; preds = %5
  %31 = sitofp i32 %4 to float
  %32 = fdiv float 1.000000e+00, %31
  %.not21 = icmp slt i32 %4, 1
  br i1 %.not21, label %.loopexit, label %.lr.ph

.lr.ph:                                           ; preds = %30
  %33 = getelementptr inbounds nuw i8, ptr %1, i64 4
  %34 = getelementptr inbounds nuw i8, ptr %2, i64 4
  %35 = getelementptr inbounds nuw i8, ptr %3, i64 4
  %36 = getelementptr inbounds nuw i8, ptr %0, i64 84
  br label %37

37:                                               ; preds = %.lr.ph, %_ZN8ImVectorI6ImVec2E9push_backERKS0_.exit
  %38 = phi i32 [ %9, %.lr.ph ], [ %89, %_ZN8ImVectorI6ImVec2E9push_backERKS0_.exit ]
  %.022 = phi i32 [ 1, %.lr.ph ], [ %90, %_ZN8ImVectorI6ImVec2E9push_backERKS0_.exit ]
  %39 = uitofp nneg i32 %.022 to float
  %40 = fmul float %32, %39
  %41 = fsub float 1.000000e+00, %40
  %42 = fmul float %41, %41
  %43 = fmul float %41, %42
  %44 = fmul float %41, 3.000000e+00
  %45 = fmul float %41, %44
  %46 = fmul float %40, %45
  %47 = fmul float %40, %44
  %48 = fmul float %40, %47
  %49 = fmul float %40, %40
  %50 = fmul float %40, %49
  %51 = load float, ptr %1, align 4, !tbaa !103
  %52 = fmul float %46, %51
  %53 = tail call float @llvm.fmuladd.f32(float %43, float %13, float %52)
  %54 = load float, ptr %2, align 4, !tbaa !103
  %55 = tail call float @llvm.fmuladd.f32(float %48, float %54, float %53)
  %56 = load float, ptr %3, align 4, !tbaa !103
  %57 = tail call float @llvm.fmuladd.f32(float %50, float %56, float %55)
  %58 = load float, ptr %33, align 4, !tbaa !104
  %59 = fmul float %46, %58
  %60 = tail call float @llvm.fmuladd.f32(float %43, float %14, float %59)
  %61 = load float, ptr %34, align 4, !tbaa !104
  %62 = tail call float @llvm.fmuladd.f32(float %48, float %61, float %60)
  %63 = load float, ptr %35, align 4, !tbaa !104
  %64 = tail call float @llvm.fmuladd.f32(float %50, float %63, float %62)
  %.sroa.0.0.vec.insert.i = insertelement <2 x float> poison, float %57, i64 0
  %.sroa.0.4.vec.insert.i = insertelement <2 x float> %.sroa.0.0.vec.insert.i, float %64, i64 1
  %65 = load i32, ptr %36, align 4, !tbaa !66
  %66 = icmp eq i32 %38, %65
  br i1 %66, label %67, label %._ZN8ImVectorI6ImVec2E7reserveEi.exit_crit_edge.i

._ZN8ImVectorI6ImVec2E7reserveEi.exit_crit_edge.i: ; preds = %37
  %.pre.i = load ptr, ptr %7, align 8, !tbaa !49
  br label %_ZN8ImVectorI6ImVec2E9push_backERKS0_.exit

67:                                               ; preds = %37
  %68 = add nsw i32 %38, 1
  %.not.i.i = icmp eq i32 %38, 0
  br i1 %.not.i.i, label %_ZNK8ImVectorI6ImVec2E14_grow_capacityEi.exit.i, label %69

69:                                               ; preds = %67
  %70 = sdiv i32 %38, 2
  %71 = add nsw i32 %70, %38
  br label %_ZNK8ImVectorI6ImVec2E14_grow_capacityEi.exit.i

_ZNK8ImVectorI6ImVec2E14_grow_capacityEi.exit.i:  ; preds = %69, %67
  %72 = phi i32 [ %71, %69 ], [ 8, %67 ]
  %73 = tail call noundef i32 @llvm.smax.i32(i32 %72, i32 %68)
  %74 = sext i32 %73 to i64
  %75 = shl nsw i64 %74, 3
  %76 = tail call noundef ptr @_ZN5ImGui8MemAllocEm(i64 noundef %75)
  %77 = load ptr, ptr %7, align 8, !tbaa !49
  %.not6.i.i = icmp eq ptr %77, null
  br i1 %.not6.i.i, label %83, label %78

78:                                               ; preds = %_ZNK8ImVectorI6ImVec2E14_grow_capacityEi.exit.i
  %79 = load i32, ptr %6, align 8, !tbaa !67
  %80 = sext i32 %79 to i64
  %81 = shl nsw i64 %80, 3
  tail call void @llvm.memcpy.p0.p0.i64(ptr align 4 %76, ptr nonnull align 4 %77, i64 %81, i1 false)
  %82 = load ptr, ptr %7, align 8, !tbaa !49
  tail call void @_ZN5ImGui7MemFreeEPv(ptr noundef %82)
  br label %83

83:                                               ; preds = %78, %_ZNK8ImVectorI6ImVec2E14_grow_capacityEi.exit.i
  store ptr %76, ptr %7, align 8, !tbaa !49
  store i32 %73, ptr %36, align 4, !tbaa !66
  %.pre3.i = load i32, ptr %6, align 8, !tbaa !67
  br label %_ZN8ImVectorI6ImVec2E9push_backERKS0_.exit

_ZN8ImVectorI6ImVec2E9push_backERKS0_.exit:       ; preds = %._ZN8ImVectorI6ImVec2E7reserveEi.exit_crit_edge.i, %83
  %84 = phi i32 [ %38, %._ZN8ImVectorI6ImVec2E7reserveEi.exit_crit_edge.i ], [ %.pre3.i, %83 ]
  %85 = phi ptr [ %.pre.i, %._ZN8ImVectorI6ImVec2E7reserveEi.exit_crit_edge.i ], [ %76, %83 ]
  %86 = sext i32 %84 to i64
  %87 = getelementptr inbounds %struct.ImVec2, ptr %85, i64 %86
  store <2 x float> %.sroa.0.4.vec.insert.i, ptr %87, align 4
  %88 = load i32, ptr %6, align 8, !tbaa !67
  %89 = add nsw i32 %88, 1
  store i32 %89, ptr %6, align 8, !tbaa !67
  %90 = add nuw i32 %.022, 1
  %exitcond.not = icmp eq i32 %.022, %4
  br i1 %exitcond.not, label %.loopexit, label %37, !llvm.loop !141

.loopexit:                                        ; preds = %_ZN8ImVectorI6ImVec2E9push_backERKS0_.exit, %30, %16
  ret void
}